target datalayout = "e-m:e-p270:32:32-p271:32:32-p272:64:64-i64:64-i128:128-f80:128-n8:16:32:64-S128"
target triple = "x86_64-pc-linux-gnu"

%struct.pmix_mca_base_framework_t = type { ptr, ptr, ptr, ptr, ptr, ptr, i32, i32, ptr, ptr, i32, i32, %struct.pmix_list_t, %struct.pmix_list_t }
%struct.pmix_list_t = type { %struct.pmix_object_t, %struct.pmix_list_item_t, i64 }
%struct.pmix_object_t = type { %union.pthread_mutex_t, ptr, i32, %struct.pmix_tma }
%union.pthread_mutex_t = type { %struct.__pthread_mutex_s }
%struct.__pthread_mutex_s = type { i32, i32, i32, i32, i32, i16, i16, %struct.__pthread_internal_list }
%struct.__pthread_internal_list = type { ptr, ptr }
%struct.pmix_tma = type { ptr, ptr, ptr, ptr, ptr, ptr, ptr, ptr }
%struct.pmix_list_item_t = type { %struct.pmix_object_t, ptr, ptr, i32 }
%struct.pmix_output_desc_t = type { i8, i8, i32, i8, i32, ptr, ptr, i32, ptr, i32, i8, i8, i8, i8, ptr, i32, i32 }
%struct.prte_process_info_t = type { %struct.pmix_proc, %struct.pmix_proc, ptr, %struct.pmix_proc, i32, i32, i32, ptr, ptr, i32, i8, ptr, i16, ptr, ptr, i8, ptr, i8 }
%struct.pmix_proc = type { [256 x i8], i32 }
%struct.pmix_byte_object = type { ptr, i64 }
%struct.prte_pmix_mdx_caddy_t = type { %struct.pmix_object_t, %struct.event, ptr, i32, ptr, ptr, %struct.pmix_byte_object, ptr, i64, ptr, i64, ptr, ptr, ptr, ptr, ptr, ptr }
%struct.event = type { %struct.event_callback, %union.anon.0, i32, ptr, %union.anon.2, i16, i16, %struct.timeval }
%struct.event_callback = type { %struct.anon, i16, i8, i8, %union.anon, ptr }
%struct.anon = type { ptr, ptr }
%union.anon = type { ptr }
%union.anon.0 = type { %struct.anon.1 }
%struct.anon.1 = type { ptr, ptr }
%union.anon.2 = type { %struct.anon.3 }
%struct.anon.3 = type { %struct.anon.4, %struct.timeval }
%struct.anon.4 = type { ptr, ptr }
%struct.timeval = type { i64, i64 }

@prte_grpcomm_base_framework = external global %struct.pmix_mca_base_framework_t, align 8
@pmix_output_info = external global [0 x %struct.pmix_output_desc_t], align 8
@prte_process_info = external global %struct.prte_process_info_t, align 8
@.str.3 = private unnamed_addr constant [26 x i8] c"%s grpcomm:base:allgather\00", align 1
@prte_event_base = external global ptr, align 8

; Function Attrs: inlinehint nounwind uwtable
define internal void @pmix_atomic_wmb() #4 {
  fence release
  ret void
}

; Function Attrs: nounwind uwtable
define i32 @prte_grpcomm_API_allgather(ptr noundef %0) #0 {
  %2 = alloca ptr, align 8
  store ptr %0, ptr %2, align 8, !tbaa !3
  %3 = load i32, ptr getelementptr inbounds nuw (%struct.pmix_mca_base_framework_t, ptr @prte_grpcomm_base_framework, i32 0, i32 11), align 4, !tbaa !11
  %4 = icmp sge i32 %3, 0
  br i1 %4, label %5, label %18

5:                                                ; preds = %1
  %6 = load i32, ptr getelementptr inbounds nuw (%struct.pmix_mca_base_framework_t, ptr @prte_grpcomm_base_framework, i32 0, i32 11), align 4, !tbaa !11
  %7 = icmp slt i32 %6, 64
  br i1 %7, label %8, label %18

8:                                                ; preds = %5
  %9 = load i32, ptr getelementptr inbounds nuw (%struct.pmix_mca_base_framework_t, ptr @prte_grpcomm_base_framework, i32 0, i32 11), align 4, !tbaa !11
  %10 = sext i32 %9 to i64
  %11 = getelementptr inbounds [0 x %struct.pmix_output_desc_t], ptr @pmix_output_info, i64 0, i64 %10
  %12 = getelementptr inbounds nuw %struct.pmix_output_desc_t, ptr %11, i32 0, i32 2
  %13 = load i32, ptr %12, align 4, !tbaa !22
  %14 = icmp sge i32 %13, 1
  br i1 %14, label %15, label %18

15:                                               ; preds = %8
  %16 = load i32, ptr getelementptr inbounds nuw (%struct.pmix_mca_base_framework_t, ptr @prte_grpcomm_base_framework, i32 0, i32 11), align 4, !tbaa !11
  %17 = call ptr @prte_util_print_name_args(ptr noundef @prte_process_info)
  call void (i32, ptr, ...) @pmix_output(i32 noundef %16, ptr noundef @.str.3, ptr noundef %17)
  br label %18

18:                                               ; preds = %15, %8, %5, %1
  %19 = load ptr, ptr %2, align 8, !tbaa !3
  %20 = getelementptr inbounds nuw %struct.prte_pmix_mdx_caddy_t, ptr %19, i32 0, i32 1
  %21 = load ptr, ptr @prte_event_base, align 8, !tbaa !105
  %22 = load ptr, ptr %2, align 8, !tbaa !3
  %23 = call i32 @prte_event_assign(ptr noundef %20, ptr noundef %21, i32 noundef -1, i16 noundef signext 4, ptr noundef @allgather_stub, ptr noundef %22)
  call void @pmix_atomic_wmb()
  %24 = load ptr, ptr %2, align 8, !tbaa !3
  %25 = getelementptr inbounds nuw %struct.prte_pmix_mdx_caddy_t, ptr %24, i32 0, i32 1
  call void @event_active(ptr noundef %25, i32 noundef 4, i16 noundef signext 1)
  ret i32 0
}