; Function Attrs: nounwind uwtable
define noundef i32 @prte_grpcomm_API_allgather(ptr noundef %0) local_unnamed_addr #0 {
  %2 = load i32, ptr getelementptr inbounds nuw (i8, ptr @prte_grpcomm_base_framework, i64 76), align 4, !tbaa !3
  %or.cond = icmp ult i32 %2, 64
  br i1 %or.cond, label %3, label %10

3:                                                ; preds = %1
  %4 = zext nneg i32 %2 to i64
  %5 = getelementptr inbounds nuw [0 x %struct.pmix_output_desc_t], ptr @pmix_output_info, i64 0, i64 %4, i32 2
  %6 = load i32, ptr %5, align 4, !tbaa !18
  %7 = icmp sgt i32 %6, 0
  br i1 %7, label %8, label %10

8:                                                ; preds = %3
  %9 = tail call ptr @prte_util_print_name_args(ptr noundef nonnull @prte_process_info) #14
  tail call void (i32, ptr, ...) @pmix_output(i32 noundef %2, ptr noundef nonnull @.str.3, ptr noundef %9) #14
  br label %10

10:                                               ; preds = %8, %3, %1
  %11 = getelementptr inbounds nuw i8, ptr %0, i64 120
  %12 = load ptr, ptr @prte_event_base, align 8, !tbaa !97
  %13 = tail call i32 @prte_event_assign(ptr noundef nonnull %11, ptr noundef %12, i32 noundef -1, i16 noundef signext 4, ptr noundef nonnull @allgather_stub, ptr noundef %0) #14
  fence release
  tail call void @event_active(ptr noundef nonnull %11, i32 noundef 4, i16 noundef signext 1) #14
  ret i32 0
}